; Function Attrs: mustprogress uwtable
define void @_ZNK6colvar10spin_angle11dist2_rgradERK11colvarvalueS3_(ptr dead_on_unwind noalias writable sret(%class.colvarvalue) align 8 %0, ptr nocapture nonnull readnone align 8 %1, ptr nocapture noundef nonnull readonly align 8 dereferenceable(168) %2, ptr nocapture noundef nonnull readonly align 8 dereferenceable(168) %3) unnamed_addr #2 align 2 {
  %5 = alloca double, align 8
  %6 = getelementptr inbounds i8, ptr %2, i64 8
  %7 = load double, ptr %6, align 8
  %8 = getelementptr inbounds i8, ptr %3, i64 8
  %9 = load double, ptr %8, align 8
  %10 = fsub double %7, %9
  %11 = fcmp olt double %10, -1.800000e+02
  br i1 %11, label %12, label %14

12:                                               ; preds = %4
  %13 = fadd double %10, 3.600000e+02
  br label %18

14:                                               ; preds = %4
  %15 = fcmp ogt double %10, 1.800000e+02
  %16 = fadd double %10, -3.600000e+02
  %17 = select i1 %15, double %16, double %10
  br label %18

18:                                               ; preds = %14, %12
  %19 = phi double [ %13, %12 ], [ %17, %14 ]
  %20 = fmul double %19, -2.000000e+00
  store double %20, ptr %5, align 8
  call void @_ZN11colvarvalueC1ERKd(ptr noundef nonnull align 8 dereferenceable(168) %0, ptr noundef nonnull align 8 dereferenceable(8) %5)
  ret void
}